; Function Attrs: mustprogress uwtable
define internal fastcc void @"_ZNO8pybind116detail15argument_loaderIJRKNS_6objectEEE4callIvNS0_9void_typeERZ21test_submodule_class_RNS_7module_EE4$_33EENSt9enable_ifIXsr3std7is_voidIT_EE5valueES7_E4typeEOT1_"(ptr noundef nonnull readonly align 8 captures(none) dereferenceable(8) %0) unnamed_addr #5 align 2 personality ptr @__gxx_personality_v0 {
  %2 = alloca %"class.pybind11::class_.1707", align 8
  %3 = alloca %"class.pybind11::class_.1707", align 8
  call void @llvm.lifetime.start.p0(i64 8, ptr nonnull %2)
  call void @llvm.lifetime.start.p0(i64 8, ptr nonnull %3)
  %.sroa.01.0.copyload.i.i = load ptr, ptr %0, align 8
  call fastcc void @_ZN8pybind116class_IZ21test_submodule_class_RNS_7module_EE20OtherDuplicateNestedJEEC2IJEEENS_6handleEPKcDpRKT_(ptr noundef nonnull align 8 dereferenceable(8) %2, ptr %.sroa.01.0.copyload.i.i, ptr noundef nonnull @.str.303)
  %4 = load ptr, ptr %2, align 8, !tbaa !80
  %.not.i.i.i.i.i = icmp eq ptr %4, null
  br i1 %.not.i.i.i.i.i, label %_ZN8pybind116objectD2Ev.exit.i.i, label %5

5:                                                ; preds = %1
  %6 = load i64, ptr %4, align 8, !tbaa !81
  %7 = add nsw i64 %6, -1
  store i64 %7, ptr %4, align 8, !tbaa !81
  %.not.i.i.i.i.i.i = icmp eq i64 %7, 0
  br i1 %.not.i.i.i.i.i.i, label %8, label %_ZN8pybind116objectD2Ev.exit.i.i

8:                                                ; preds = %5
  invoke void @_Py_Dealloc(ptr noundef nonnull %4)
          to label %_ZN8pybind116objectD2Ev.exit.i.i unwind label %9

9:                                                ; preds = %8
  %10 = landingpad { ptr, i32 }
          catch ptr null
  %11 = extractvalue { ptr, i32 } %10, 0
  call void @__clang_call_terminate(ptr %11) #36
  unreachable

_ZN8pybind116objectD2Ev.exit.i.i:                 ; preds = %8, %5, %1
  %.sroa.0.0.copyload.i.i = load ptr, ptr %0, align 8
  call fastcc void @_ZN8pybind116class_IZ21test_submodule_class_RNS_7module_EE20OtherDuplicateNestedJEEC2IJEEENS_6handleEPKcDpRKT_(ptr noundef nonnull align 8 dereferenceable(8) %3, ptr %.sroa.0.0.copyload.i.i, ptr noundef nonnull @.str.304)
  %12 = load ptr, ptr %3, align 8, !tbaa !80
  %.not.i.i.i3.i.i = icmp eq ptr %12, null
  br i1 %.not.i.i.i3.i.i, label %"_ZNO8pybind116detail15argument_loaderIJRKNS_6objectEEE9call_implIvRZ21test_submodule_class_RNS_7module_EE4$_33JLm0EENS0_9void_typeEEET_OT0_St16integer_sequenceImJXspT1_EEEOT2_.exit", label %13

13:                                               ; preds = %_ZN8pybind116objectD2Ev.exit.i.i
  %14 = load i64, ptr %12, align 8, !tbaa !81
  %15 = add nsw i64 %14, -1
  store i64 %15, ptr %12, align 8, !tbaa !81
  %.not.i.i.i.i4.i.i = icmp eq i64 %15, 0
  br i1 %.not.i.i.i.i4.i.i, label %16, label %"_ZNO8pybind116detail15argument_loaderIJRKNS_6objectEEE9call_implIvRZ21test_submodule_class_RNS_7module_EE4$_33JLm0EENS0_9void_typeEEET_OT0_St16integer_sequenceImJXspT1_EEEOT2_.exit"

16:                                               ; preds = %13
  invoke void @_Py_Dealloc(ptr noundef nonnull %12)
          to label %"_ZNO8pybind116detail15argument_loaderIJRKNS_6objectEEE9call_implIvRZ21test_submodule_class_RNS_7module_EE4$_33JLm0EENS0_9void_typeEEET_OT0_St16integer_sequenceImJXspT1_EEEOT2_.exit" unwind label %17

17:                                               ; preds = %16
  %18 = landingpad { ptr, i32 }
          catch ptr null
  %19 = extractvalue { ptr, i32 } %18, 0
  call void @__clang_call_terminate(ptr %19) #36
  unreachable

"_ZNO8pybind116detail15argument_loaderIJRKNS_6objectEEE9call_implIvRZ21test_submodule_class_RNS_7module_EE4$_33JLm0EENS0_9void_typeEEET_OT0_St16integer_sequenceImJXspT1_EEEOT2_.exit": ; preds = %_ZN8pybind116objectD2Ev.exit.i.i, %13, %16
  call void @llvm.lifetime.end.p0(i64 8, ptr nonnull %2)
  call void @llvm.lifetime.end.p0(i64 8, ptr nonnull %3)
  ret void
}